target datalayout = "e-m:e-p270:32:32-p271:32:32-p272:64:64-i64:64-i128:128-f80:128-n8:16:32:64-S128"
target triple = "x86_64-pc-linux-gnu"

%struct.radix_process_st = type { i64, i64, i64, ptr, ptr, ptr, %struct.OSSL_TIME, ptr, i32, i32 }
%struct.OSSL_TIME = type { i64 }
%struct.radix_obj_st = type { ptr, ptr, i8 }

@.str.74 = private unnamed_addr constant [38 x i8] c"../openssl/test/radix/quic_bindings.c\00", align 1
@.str.75 = private unnamed_addr constant [31 x i8] c"obj = RADIX_OBJ_new(name, ssl)\00", align 1
@.str.76 = private unnamed_addr constant [37 x i8] c"RADIX_PROCESS_set_obj(rp, name, obj)\00", align 1
@.str.77 = private unnamed_addr constant [5 x i8] c"name\00", align 1
@.str.78 = private unnamed_addr constant [4 x i8] c"ssl\00", align 1
@.str.79 = private unnamed_addr constant [35 x i8] c"obj = OPENSSL_zalloc(sizeof(*obj))\00", align 1
@.str.80 = private unnamed_addr constant [33 x i8] c"obj->name = OPENSSL_strdup(name)\00", align 1
@.str.81 = private unnamed_addr constant [16 x i8] c"obj->registered\00", align 1
@.str.82 = private unnamed_addr constant [21 x i8] c"existing->registered\00", align 1

; Function Attrs: inlinehint nounwind uwtable
define internal ptr @lh_RADIX_OBJ_retrieve(ptr noundef %0, ptr noundef %1) #5 {
  %3 = alloca ptr, align 8
  %4 = alloca ptr, align 8
  store ptr %0, ptr %3, align 8, !tbaa !89
  store ptr %1, ptr %4, align 8, !tbaa !51
  %5 = load ptr, ptr %3, align 8, !tbaa !89
  %6 = load ptr, ptr %4, align 8, !tbaa !51
  %7 = call ptr @OPENSSL_LH_retrieve(ptr noundef %5, ptr noundef %6)
  ret ptr %7
}

; Function Attrs: inlinehint nounwind uwtable
define internal ptr @lh_RADIX_OBJ_insert(ptr noundef %0, ptr noundef %1) #5 {
  %3 = alloca ptr, align 8
  %4 = alloca ptr, align 8
  store ptr %0, ptr %3, align 8, !tbaa !89
  store ptr %1, ptr %4, align 8, !tbaa !51
  %5 = load ptr, ptr %3, align 8, !tbaa !89
  %6 = load ptr, ptr %4, align 8, !tbaa !51
  %7 = call ptr @OPENSSL_LH_insert(ptr noundef %5, ptr noundef %6)
  ret ptr %7
}

; Function Attrs: inlinehint nounwind uwtable
define internal ptr @lh_RADIX_OBJ_delete(ptr noundef %0, ptr noundef %1) #5 {
  %3 = alloca ptr, align 8
  %4 = alloca ptr, align 8
  store ptr %0, ptr %3, align 8, !tbaa !89
  store ptr %1, ptr %4, align 8, !tbaa !51
  %5 = load ptr, ptr %3, align 8, !tbaa !89
  %6 = load ptr, ptr %4, align 8, !tbaa !51
  %7 = call ptr @OPENSSL_LH_delete(ptr noundef %5, ptr noundef %6)
  ret ptr %7
}

; Function Attrs: nounwind uwtable
define internal ptr @RADIX_PROCESS_get_obj(ptr noundef %0, ptr noundef %1) #0 {
  %3 = alloca ptr, align 8
  %4 = alloca ptr, align 8
  %5 = alloca %struct.radix_obj_st, align 8
  store ptr %0, ptr %3, align 8, !tbaa !83
  store ptr %1, ptr %4, align 8, !tbaa !4
  call void @llvm.lifetime.start.p0(i64 24, ptr %5) #9
  %6 = load ptr, ptr %4, align 8, !tbaa !4
  %7 = getelementptr inbounds nuw %struct.radix_obj_st, ptr %5, i32 0, i32 0
  store ptr %6, ptr %7, align 8, !tbaa !88
  %8 = load ptr, ptr %3, align 8, !tbaa !83
  %9 = getelementptr inbounds nuw %struct.radix_process_st, ptr %8, i32 0, i32 5
  %10 = load ptr, ptr %9, align 8, !tbaa !68
  %11 = call ptr @lh_RADIX_OBJ_retrieve(ptr noundef %10, ptr noundef %5)
  call void @llvm.lifetime.end.p0(i64 24, ptr %5) #9
  ret ptr %11
}

; Function Attrs: nounwind uwtable
define internal void @RADIX_OBJ_free(ptr noundef %0) #0 {
  %2 = alloca ptr, align 8
  store ptr %0, ptr %2, align 8, !tbaa !51
  %3 = load ptr, ptr %2, align 8, !tbaa !51
  %4 = icmp eq ptr %3, null
  br i1 %4, label %5, label %6

5:                                                ; preds = %1
  br label %14

6:                                                ; preds = %1
  %7 = load ptr, ptr %2, align 8, !tbaa !51
  %8 = getelementptr inbounds nuw %struct.radix_obj_st, ptr %7, i32 0, i32 1
  %9 = load ptr, ptr %8, align 8, !tbaa !53
  call void @SSL_free(ptr noundef %9)
  %10 = load ptr, ptr %2, align 8, !tbaa !51
  %11 = getelementptr inbounds nuw %struct.radix_obj_st, ptr %10, i32 0, i32 0
  %12 = load ptr, ptr %11, align 8, !tbaa !88
  call void @CRYPTO_free(ptr noundef %12, ptr noundef @.str.74, i32 noundef 134)
  %13 = load ptr, ptr %2, align 8, !tbaa !51
  call void @CRYPTO_free(ptr noundef %13, ptr noundef @.str.74, i32 noundef 135)
  br label %14

14:                                               ; preds = %6, %5
  ret void
}

; Function Attrs: nounwind uwtable
define internal i32 @RADIX_PROCESS_set_obj(ptr noundef %0, ptr noundef %1, ptr noundef %2) #0 {
  %4 = alloca i32, align 4
  %5 = alloca ptr, align 8
  %6 = alloca ptr, align 8
  %7 = alloca ptr, align 8
  %8 = alloca ptr, align 8
  %9 = alloca i32, align 4
  store ptr %0, ptr %5, align 8, !tbaa !83
  store ptr %1, ptr %6, align 8, !tbaa !4
  store ptr %2, ptr %7, align 8, !tbaa !51
  call void @llvm.lifetime.start.p0(i64 8, ptr %8) #9
  %10 = load ptr, ptr %7, align 8, !tbaa !51
  %11 = icmp ne ptr %10, null
  br i1 %11, label %12, label %23

12:                                               ; preds = %3
  %13 = load ptr, ptr %7, align 8, !tbaa !51
  %14 = getelementptr inbounds nuw %struct.radix_obj_st, ptr %13, i32 0, i32 2
  %15 = load i8, ptr %14, align 8
  %16 = and i8 %15, 1
  %17 = zext i8 %16 to i32
  %18 = icmp ne i32 %17, 0
  %19 = zext i1 %18 to i32
  %20 = call i32 @test_false(ptr noundef @.str.74, i32 noundef 446, ptr noundef @.str.81, i32 noundef %19)
  %21 = icmp ne i32 %20, 0
  br i1 %21, label %23, label %22

22:                                               ; preds = %12
  store i32 0, ptr %4, align 4
  store i32 1, ptr %9, align 4
  br label %71

23:                                               ; preds = %12, %3
  %24 = load ptr, ptr %5, align 8, !tbaa !83
  %25 = load ptr, ptr %6, align 8, !tbaa !4
  %26 = call ptr @RADIX_PROCESS_get_obj(ptr noundef %24, ptr noundef %25)
  store ptr %26, ptr %8, align 8, !tbaa !51
  %27 = load ptr, ptr %8, align 8, !tbaa !51
  %28 = icmp ne ptr %27, null
  br i1 %28, label %29, label %56

29:                                               ; preds = %23
  %30 = load ptr, ptr %7, align 8, !tbaa !51
  %31 = load ptr, ptr %8, align 8, !tbaa !51
  %32 = icmp ne ptr %30, %31
  br i1 %32, label %33, label %56

33:                                               ; preds = %29
  %34 = load ptr, ptr %8, align 8, !tbaa !51
  %35 = getelementptr inbounds nuw %struct.radix_obj_st, ptr %34, i32 0, i32 2
  %36 = load i8, ptr %35, align 8
  %37 = and i8 %36, 1
  %38 = zext i8 %37 to i32
  %39 = icmp ne i32 %38, 0
  %40 = zext i1 %39 to i32
  %41 = call i32 @test_true(ptr noundef @.str.74, i32 noundef 451, ptr noundef @.str.82, i32 noundef %40)
  %42 = icmp ne i32 %41, 0
  br i1 %42, label %44, label %43

43:                                               ; preds = %33
  store i32 0, ptr %4, align 4
  store i32 1, ptr %9, align 4
  br label %71

44:                                               ; preds = %33
  %45 = load ptr, ptr %5, align 8, !tbaa !83
  %46 = getelementptr inbounds nuw %struct.radix_process_st, ptr %45, i32 0, i32 5
  %47 = load ptr, ptr %46, align 8, !tbaa !68
  %48 = load ptr, ptr %8, align 8, !tbaa !51
  %49 = call ptr @lh_RADIX_OBJ_delete(ptr noundef %47, ptr noundef %48)
  %50 = load ptr, ptr %8, align 8, !tbaa !51
  %51 = getelementptr inbounds nuw %struct.radix_obj_st, ptr %50, i32 0, i32 2
  %52 = load i8, ptr %51, align 8
  %53 = and i8 %52, -2
  %54 = or i8 %53, 0
  store i8 %54, ptr %51, align 8
  %55 = load ptr, ptr %8, align 8, !tbaa !51
  call void @RADIX_OBJ_free(ptr noundef %55)
  br label %56

56:                                               ; preds = %44, %29, %23
  %57 = load ptr, ptr %7, align 8, !tbaa !51
  %58 = icmp ne ptr %57, null
  br i1 %58, label %59, label %70

59:                                               ; preds = %56
  %60 = load ptr, ptr %5, align 8, !tbaa !83
  %61 = getelementptr inbounds nuw %struct.radix_process_st, ptr %60, i32 0, i32 5
  %62 = load ptr, ptr %61, align 8, !tbaa !68
  %63 = load ptr, ptr %7, align 8, !tbaa !51
  %64 = call ptr @lh_RADIX_OBJ_insert(ptr noundef %62, ptr noundef %63)
  %65 = load ptr, ptr %7, align 8, !tbaa !51
  %66 = getelementptr inbounds nuw %struct.radix_obj_st, ptr %65, i32 0, i32 2
  %67 = load i8, ptr %66, align 8
  %68 = and i8 %67, -2
  %69 = or i8 %68, 1
  store i8 %69, ptr %66, align 8
  br label %70

70:                                               ; preds = %59, %56
  store i32 1, ptr %4, align 4
  store i32 1, ptr %9, align 4
  br label %71

71:                                               ; preds = %70, %43, %22
  call void @llvm.lifetime.end.p0(i64 8, ptr %8) #9
  %72 = load i32, ptr %4, align 4
  ret i32 %72
}

; Function Attrs: nounwind uwtable
define internal ptr @RADIX_OBJ_new(ptr noundef %0, ptr noundef %1) #0 {
  %3 = alloca ptr, align 8
  %4 = alloca ptr, align 8
  %5 = alloca ptr, align 8
  %6 = alloca ptr, align 8
  %7 = alloca i32, align 4
  store ptr %0, ptr %4, align 8, !tbaa !4
  store ptr %1, ptr %5, align 8, !tbaa !49
  call void @llvm.lifetime.start.p0(i64 8, ptr %6) #9
  %8 = load ptr, ptr %4, align 8, !tbaa !4
  %9 = call i32 @test_ptr(ptr noundef @.str.74, i32 noundef 111, ptr noundef @.str.77, ptr noundef %8)
  %10 = icmp ne i32 %9, 0
  br i1 %10, label %11, label %15

11:                                               ; preds = %2
  %12 = load ptr, ptr %5, align 8, !tbaa !49
  %13 = call i32 @test_ptr(ptr noundef @.str.74, i32 noundef 111, ptr noundef @.str.78, ptr noundef %12)
  %14 = icmp ne i32 %13, 0
  br i1 %14, label %16, label %15

15:                                               ; preds = %11, %2
  store ptr null, ptr %3, align 8
  store i32 1, ptr %7, align 4
  br label %35

16:                                               ; preds = %11
  %17 = call noalias ptr @CRYPTO_zalloc(i64 noundef 24, ptr noundef @.str.74, i32 noundef 114)
  store ptr %17, ptr %6, align 8, !tbaa !51
  %18 = call i32 @test_ptr(ptr noundef @.str.74, i32 noundef 114, ptr noundef @.str.79, ptr noundef %17)
  %19 = icmp ne i32 %18, 0
  br i1 %19, label %21, label %20

20:                                               ; preds = %16
  store ptr null, ptr %3, align 8
  store i32 1, ptr %7, align 4
  br label %35

21:                                               ; preds = %16
  %22 = load ptr, ptr %4, align 8, !tbaa !4
  %23 = call noalias ptr @CRYPTO_strdup(ptr noundef %22, ptr noundef @.str.74, i32 noundef 117)
  %24 = load ptr, ptr %6, align 8, !tbaa !51
  %25 = getelementptr inbounds nuw %struct.radix_obj_st, ptr %24, i32 0, i32 0
  store ptr %23, ptr %25, align 8, !tbaa !88
  %26 = call i32 @test_ptr(ptr noundef @.str.74, i32 noundef 117, ptr noundef @.str.80, ptr noundef %23)
  %27 = icmp ne i32 %26, 0
  br i1 %27, label %30, label %28

28:                                               ; preds = %21
  %29 = load ptr, ptr %6, align 8, !tbaa !51
  call void @CRYPTO_free(ptr noundef %29, ptr noundef @.str.74, i32 noundef 118)
  store ptr null, ptr %3, align 8
  store i32 1, ptr %7, align 4
  br label %35

30:                                               ; preds = %21
  %31 = load ptr, ptr %5, align 8, !tbaa !49
  %32 = load ptr, ptr %6, align 8, !tbaa !51
  %33 = getelementptr inbounds nuw %struct.radix_obj_st, ptr %32, i32 0, i32 1
  store ptr %31, ptr %33, align 8, !tbaa !53
  %34 = load ptr, ptr %6, align 8, !tbaa !51
  store ptr %34, ptr %3, align 8
  store i32 1, ptr %7, align 4
  br label %35

35:                                               ; preds = %30, %28, %20, %15
  call void @llvm.lifetime.end.p0(i64 8, ptr %6) #9
  %36 = load ptr, ptr %3, align 8
  ret ptr %36
}

; Function Attrs: nounwind uwtable
define internal i32 @RADIX_PROCESS_set_ssl(ptr noundef %0, ptr noundef %1, ptr noundef %2) #0 {
  %4 = alloca i32, align 4
  %5 = alloca ptr, align 8
  %6 = alloca ptr, align 8
  %7 = alloca ptr, align 8
  %8 = alloca ptr, align 8
  %9 = alloca i32, align 4
  store ptr %0, ptr %5, align 8, !tbaa !83
  store ptr %1, ptr %6, align 8, !tbaa !4
  store ptr %2, ptr %7, align 8, !tbaa !49
  call void @llvm.lifetime.start.p0(i64 8, ptr %8) #9
  %10 = load ptr, ptr %6, align 8, !tbaa !4
  %11 = load ptr, ptr %7, align 8, !tbaa !49
  %12 = call ptr @RADIX_OBJ_new(ptr noundef %10, ptr noundef %11)
  store ptr %12, ptr %8, align 8, !tbaa !51
  %13 = call i32 @test_ptr(ptr noundef @.str.74, i32 noundef 471, ptr noundef @.str.75, ptr noundef %12)
  %14 = icmp ne i32 %13, 0
  br i1 %14, label %16, label %15

15:                                               ; preds = %3
  store i32 0, ptr %4, align 4
  store i32 1, ptr %9, align 4
  br label %28

16:                                               ; preds = %3
  %17 = load ptr, ptr %5, align 8, !tbaa !83
  %18 = load ptr, ptr %6, align 8, !tbaa !4
  %19 = load ptr, ptr %8, align 8, !tbaa !51
  %20 = call i32 @RADIX_PROCESS_set_obj(ptr noundef %17, ptr noundef %18, ptr noundef %19)
  %21 = icmp ne i32 %20, 0
  %22 = zext i1 %21 to i32
  %23 = call i32 @test_true(ptr noundef @.str.74, i32 noundef 474, ptr noundef @.str.76, i32 noundef %22)
  %24 = icmp ne i32 %23, 0
  br i1 %24, label %27, label %25

25:                                               ; preds = %16
  %26 = load ptr, ptr %8, align 8, !tbaa !51
  call void @RADIX_OBJ_free(ptr noundef %26)
  store i32 0, ptr %4, align 4
  store i32 1, ptr %9, align 4
  br label %28

27:                                               ; preds = %16
  store i32 1, ptr %4, align 4
  store i32 1, ptr %9, align 4
  br label %28

28:                                               ; preds = %27, %25, %15
  call void @llvm.lifetime.end.p0(i64 8, ptr %8) #9
  %29 = load i32, ptr %4, align 4
  ret i32 %29
}