; Function Attrs: nounwind uwtable
define internal fastcc range(i32 0, 2) i32 @RADIX_PROCESS_set_ssl(ptr noundef %0, ptr noundef %1) unnamed_addr #1 {
  %3 = alloca %struct.radix_obj_st, align 8
  %4 = tail call i32 @test_ptr(ptr noundef nonnull @.str.74, i32 noundef 111, ptr noundef nonnull @.str.77, ptr noundef %0) #12
  %.not.i = icmp eq i32 %4, 0
  br i1 %.not.i, label %RADIX_OBJ_new.exit, label %5

5:                                                ; preds = %2
  %6 = tail call i32 @test_ptr(ptr noundef nonnull @.str.74, i32 noundef 111, ptr noundef nonnull @.str.78, ptr noundef %1) #12
  %.not9.i = icmp eq i32 %6, 0
  br i1 %.not9.i, label %RADIX_OBJ_new.exit, label %7

7:                                                ; preds = %5
  %8 = tail call noalias ptr @CRYPTO_zalloc(i64 noundef 24, ptr noundef nonnull @.str.74, i32 noundef 114) #12
  %9 = tail call i32 @test_ptr(ptr noundef nonnull @.str.74, i32 noundef 114, ptr noundef nonnull @.str.79, ptr noundef %8) #12
  %.not10.i = icmp eq i32 %9, 0
  br i1 %.not10.i, label %RADIX_OBJ_new.exit, label %10

10:                                               ; preds = %7
  %11 = tail call noalias ptr @CRYPTO_strdup(ptr noundef %0, ptr noundef nonnull @.str.74, i32 noundef 117) #12
  store ptr %11, ptr %8, align 8, !tbaa !46
  %12 = tail call i32 @test_ptr(ptr noundef nonnull @.str.74, i32 noundef 117, ptr noundef nonnull @.str.80, ptr noundef %11) #12
  %.not11.i = icmp eq i32 %12, 0
  br i1 %.not11.i, label %13, label %14

13:                                               ; preds = %10
  tail call void @CRYPTO_free(ptr noundef nonnull %8, ptr noundef nonnull @.str.74, i32 noundef 118) #12
  br label %RADIX_OBJ_new.exit

14:                                               ; preds = %10
  %15 = getelementptr inbounds nuw i8, ptr %8, i64 8
  store ptr %1, ptr %15, align 8, !tbaa !108
  br label %RADIX_OBJ_new.exit

RADIX_OBJ_new.exit:                               ; preds = %2, %5, %7, %13, %14
  %.0.i = phi ptr [ %8, %14 ], [ null, %13 ], [ null, %5 ], [ null, %2 ], [ null, %7 ]
  %16 = tail call i32 @test_ptr(ptr noundef nonnull @.str.74, i32 noundef 471, ptr noundef nonnull @.str.75, ptr noundef %.0.i) #12
  %.not = icmp eq i32 %16, 0
  br i1 %.not, label %RADIX_OBJ_free.exit, label %17

17:                                               ; preds = %RADIX_OBJ_new.exit
  %.not.i7 = icmp eq ptr %.0.i, null
  br i1 %.not.i7, label %24, label %18

18:                                               ; preds = %17
  %19 = getelementptr inbounds nuw i8, ptr %.0.i, i64 16
  %20 = load i8, ptr %19, align 8
  %21 = and i8 %20, 1
  %22 = zext nneg i8 %21 to i32
  %23 = tail call i32 @test_false(ptr noundef nonnull @.str.74, i32 noundef 446, ptr noundef nonnull @.str.81, i32 noundef %22) #12
  %.not18.i = icmp eq i32 %23, 0
  br i1 %.not18.i, label %RADIX_PROCESS_set_obj.exit, label %24

24:                                               ; preds = %18, %17
  call void @llvm.lifetime.start.p0(i64 24, ptr nonnull %3) #12
  store ptr %0, ptr %3, align 8, !tbaa !46
  %25 = load ptr, ptr getelementptr inbounds nuw (i8, ptr @radix_process, i64 40), align 8, !tbaa !18
  %26 = call ptr @OPENSSL_LH_retrieve(ptr noundef %25, ptr noundef nonnull %3) #12
  call void @llvm.lifetime.end.p0(i64 24, ptr nonnull %3) #12
  %.not19.i = icmp eq ptr %26, null
  %.not20.i = icmp eq ptr %.0.i, %26
  %or.cond.i = or i1 %.not19.i, %.not20.i
  br i1 %or.cond.i, label %40, label %27

27:                                               ; preds = %24
  %28 = getelementptr inbounds nuw i8, ptr %26, i64 16
  %29 = load i8, ptr %28, align 8
  %30 = and i8 %29, 1
  %31 = zext nneg i8 %30 to i32
  %32 = call i32 @test_true(ptr noundef nonnull @.str.74, i32 noundef 451, ptr noundef nonnull @.str.82, i32 noundef %31) #12
  %.not21.i = icmp eq i32 %32, 0
  br i1 %.not21.i, label %RADIX_PROCESS_set_obj.exit, label %RADIX_OBJ_free.exit.i

RADIX_OBJ_free.exit.i:                            ; preds = %27
  %33 = load ptr, ptr getelementptr inbounds nuw (i8, ptr @radix_process, i64 40), align 8, !tbaa !18
  %34 = call ptr @OPENSSL_LH_delete(ptr noundef %33, ptr noundef nonnull %26) #12
  %35 = load i8, ptr %28, align 8
  %36 = and i8 %35, -2
  store i8 %36, ptr %28, align 8
  %37 = getelementptr inbounds nuw i8, ptr %26, i64 8
  %38 = load ptr, ptr %37, align 8, !tbaa !108
  call void @SSL_free(ptr noundef %38) #12
  %39 = load ptr, ptr %26, align 8, !tbaa !46
  call void @CRYPTO_free(ptr noundef %39, ptr noundef nonnull @.str.74, i32 noundef 134) #12
  call void @CRYPTO_free(ptr noundef nonnull %26, ptr noundef nonnull @.str.74, i32 noundef 135) #12
  br label %40

40:                                               ; preds = %RADIX_OBJ_free.exit.i, %24
  br i1 %.not.i7, label %RADIX_PROCESS_set_obj.exit.thread, label %41

41:                                               ; preds = %40
  %42 = load ptr, ptr getelementptr inbounds nuw (i8, ptr @radix_process, i64 40), align 8, !tbaa !18
  %43 = call ptr @OPENSSL_LH_insert(ptr noundef %42, ptr noundef nonnull %.0.i) #12
  %44 = getelementptr inbounds nuw i8, ptr %.0.i, i64 16
  %45 = load i8, ptr %44, align 8
  %46 = or i8 %45, 1
  store i8 %46, ptr %44, align 8
  br label %RADIX_PROCESS_set_obj.exit

RADIX_PROCESS_set_obj.exit:                       ; preds = %18, %27, %41
  %.0.i8 = phi i32 [ 0, %18 ], [ 0, %27 ], [ 1, %41 ]
  %47 = call i32 @test_true(ptr noundef nonnull @.str.74, i32 noundef 474, ptr noundef nonnull @.str.76, i32 noundef %.0.i8) #12
  %.not6 = icmp ne i32 %47, 0
  %brmerge = or i1 %.not.i7, %.not6
  br i1 %brmerge, label %RADIX_OBJ_free.exit, label %49

RADIX_PROCESS_set_obj.exit.thread:                ; preds = %40
  %48 = call i32 @test_true(ptr noundef nonnull @.str.74, i32 noundef 474, ptr noundef nonnull @.str.76, i32 noundef 1) #12
  %.not62 = icmp ne i32 %48, 0
  br label %RADIX_OBJ_free.exit

49:                                               ; preds = %RADIX_PROCESS_set_obj.exit
  %50 = getelementptr inbounds nuw i8, ptr %.0.i, i64 8
  %51 = load ptr, ptr %50, align 8, !tbaa !108
  call void @SSL_free(ptr noundef %51) #12
  %52 = load ptr, ptr %.0.i, align 8, !tbaa !46
  call void @CRYPTO_free(ptr noundef %52, ptr noundef nonnull @.str.74, i32 noundef 134) #12
  call void @CRYPTO_free(ptr noundef nonnull %.0.i, ptr noundef nonnull @.str.74, i32 noundef 135) #12
  br label %RADIX_OBJ_free.exit

RADIX_OBJ_free.exit:                              ; preds = %RADIX_PROCESS_set_obj.exit.thread, %RADIX_PROCESS_set_obj.exit, %49, %RADIX_OBJ_new.exit
  %.0.shrunk = phi i1 [ false, %RADIX_OBJ_new.exit ], [ %.not6, %RADIX_PROCESS_set_obj.exit ], [ false, %49 ], [ %.not62, %RADIX_PROCESS_set_obj.exit.thread ]
  %.0 = zext i1 %.0.shrunk to i32
  ret i32 %.0
}